target datalayout = "e-m:e-p270:32:32-p271:32:32-p272:64:64-i64:64-i128:128-f80:128-n8:16:32:64-S128"
target triple = "x86_64-pc-linux-gnu"

%struct.settings = type { i64, i32, i32, i32, ptr, i32, i32, i32, ptr, ptr, i32, double, i32, i32, i32, i8, i32, i32, i8, i32, i32, i32, i32, i32, i32, i8, i8, i8, i8, i8, i8, i8, i32, i32, double, double, i32, i32, i8, i32, i8, i8, ptr, i32, i32, i32, i32, double, double, i32, i8, i32, i32, i32, i32, i32, i8, i8, i8, ptr, i32, i32, i32, i32, i32, i32, i32, i32, i32, i32, double, i8, i32, i32, ptr, i32 }
%struct.slabclass_t = type { i32, i32, ptr, i32, i32, ptr, i32 }

@settings = external global %struct.settings, align 8
@slabclass = internal global [64 x %struct.slabclass_t] zeroinitializer, align 16
@power_largest = internal global i32 0, align 4

; Function Attrs: nounwind uwtable
define dso_local i32 @slabs_clsid(i64 noundef %0) #0 {
  %2 = alloca i32, align 4
  %3 = alloca i64, align 8
  %4 = alloca i32, align 4
  %5 = alloca i32, align 4
  store i64 %0, ptr %3, align 8, !tbaa !4
  call void @llvm.lifetime.start.p0(i64 4, ptr %4) #9
  store i32 1, ptr %4, align 4, !tbaa !8
  %6 = load i64, ptr %3, align 8, !tbaa !4
  %7 = icmp eq i64 %6, 0
  br i1 %7, label %13, label %8

8:                                                ; preds = %1
  %9 = load i64, ptr %3, align 8, !tbaa !4
  %10 = load i32, ptr getelementptr inbounds nuw (%struct.settings, ptr @settings, i32 0, i32 21), align 4, !tbaa !10
  %11 = sext i32 %10 to i64
  %12 = icmp ugt i64 %9, %11
  br i1 %12, label %13, label %14

13:                                               ; preds = %8, %1
  store i32 0, ptr %2, align 4
  store i32 1, ptr %5, align 4
  br label %34

14:                                               ; preds = %8
  br label %15

15:                                               ; preds = %31, %14
  %16 = load i64, ptr %3, align 8, !tbaa !4
  %17 = load i32, ptr %4, align 4, !tbaa !8
  %18 = sext i32 %17 to i64
  %19 = getelementptr inbounds [64 x %struct.slabclass_t], ptr @slabclass, i64 0, i64 %18
  %20 = getelementptr inbounds nuw %struct.slabclass_t, ptr %19, i32 0, i32 0
  %21 = load i32, ptr %20, align 8, !tbaa !17
  %22 = zext i32 %21 to i64
  %23 = icmp ugt i64 %16, %22
  br i1 %23, label %24, label %32

24:                                               ; preds = %15
  %25 = load i32, ptr %4, align 4, !tbaa !8
  %26 = add nsw i32 %25, 1
  store i32 %26, ptr %4, align 4, !tbaa !8
  %27 = load i32, ptr @power_largest, align 4, !tbaa !8
  %28 = icmp eq i32 %25, %27
  br i1 %28, label %29, label %31

29:                                               ; preds = %24
  %30 = load i32, ptr @power_largest, align 4, !tbaa !8
  store i32 %30, ptr %2, align 4
  store i32 1, ptr %5, align 4
  br label %34

31:                                               ; preds = %24
  br label %15, !llvm.loop !19

32:                                               ; preds = %15
  %33 = load i32, ptr %4, align 4, !tbaa !8
  store i32 %33, ptr %2, align 4
  store i32 1, ptr %5, align 4
  br label %34

34:                                               ; preds = %32, %29, %13
  call void @llvm.lifetime.end.p0(i64 4, ptr %4) #9
  %35 = load i32, ptr %2, align 4
  ret i32 %35
}