; Function Attrs: nofree norecurse nosync nounwind memory(read, argmem: none, inaccessiblemem: none) uwtable
define dso_local i32 @slabs_clsid(i64 noundef %0) local_unnamed_addr #0 {
  %2 = load i32, ptr getelementptr inbounds nuw (i8, ptr @settings, i64 116), align 4
  %.fr = freeze i32 %2
  %3 = sext i32 %.fr to i64
  %4 = add i64 %0, -1
  %or.cond.not = icmp ult i64 %4, %3
  br i1 %or.cond.not, label %.preheader, label %.loopexit

.preheader:                                       ; preds = %1
  %5 = load i32, ptr @power_largest, align 4
  %6 = zext i32 %5 to i64
  br label %7

7:                                                ; preds = %.preheader, %12
  %indvars.iv = phi i64 [ 1, %.preheader ], [ %indvars.iv.next, %12 ]
  %8 = getelementptr inbounds nuw [64 x %struct.slabclass_t], ptr @slabclass, i64 0, i64 %indvars.iv
  %9 = load i32, ptr %8, align 8, !tbaa !4
  %10 = zext i32 %9 to i64
  %11 = icmp ugt i64 %0, %10
  br i1 %11, label %12, label %.loopexit.loopexit.split.loop.exit13

12:                                               ; preds = %7
  %indvars.iv.next = add nuw nsw i64 %indvars.iv, 1
  %13 = icmp eq i64 %indvars.iv, %6
  br i1 %13, label %.loopexit, label %7, !llvm.loop !10

.loopexit.loopexit.split.loop.exit13:             ; preds = %7
  %14 = trunc nuw nsw i64 %indvars.iv to i32
  br label %.loopexit

.loopexit:                                        ; preds = %12, %.loopexit.loopexit.split.loop.exit13, %1
  %.07 = phi i32 [ 0, %1 ], [ %14, %.loopexit.loopexit.split.loop.exit13 ], [ %5, %12 ]
  ret i32 %.07
}